; Function Attrs: nounwind uwtable
define range(i32 0, 2) i32 @If_ManImproveNodeFaninCompact0(ptr noundef readnone captures(none) %0, ptr noundef readnone captures(none) %1, i32 noundef %2, ptr noundef captures(none) %3, ptr noundef captures(none) %4) local_unnamed_addr #0 {
  %6 = getelementptr i8, ptr %3, i64 4
  %.val = load i32, ptr %6, align 4, !tbaa !32
  %7 = icmp sgt i32 %.val, 0
  br i1 %7, label %.lr.ph, label %.critedge

.lr.ph:                                           ; preds = %5
  %8 = getelementptr i8, ptr %3, i64 8
  %.val16 = load ptr, ptr %8, align 8, !tbaa !35
  %wide.trip.count = zext nneg i32 %.val to i64
  br label %9

9:                                                ; preds = %.lr.ph, %42
  %indvars.iv = phi i64 [ 0, %.lr.ph ], [ %indvars.iv.next, %42 ]
  %10 = getelementptr inbounds nuw ptr, ptr %.val16, i64 %indvars.iv
  %11 = load ptr, ptr %10, align 8, !tbaa !37
  %.val17 = load i32, ptr %11, align 8
  %12 = and i32 %.val17, 15
  %.not = icmp eq i32 %12, 2
  br i1 %.not, label %42, label %13

13:                                               ; preds = %9
  %14 = getelementptr i8, ptr %11, i64 24
  %.val.i = load ptr, ptr %14, align 8, !tbaa !45
  %15 = load i32, ptr %.val.i, align 8
  %16 = and i32 %15, 256
  %.not.i = icmp eq i32 %16, 0
  br i1 %.not.i, label %If_ManImproveNodeWillGrow.exit, label %20

If_ManImproveNodeWillGrow.exit:                   ; preds = %13
  %17 = getelementptr i8, ptr %11, i64 32
  %.val5.i = load ptr, ptr %17, align 8, !tbaa !46
  %18 = load i32, ptr %.val5.i, align 8
  %19 = and i32 %18, 256
  %.not15.not = icmp eq i32 %19, 0
  br i1 %.not15.not, label %42, label %24

20:                                               ; preds = %13
  %21 = getelementptr inbounds nuw i8, ptr %11, i64 12
  %22 = load i32, ptr %21, align 4, !tbaa !40
  %23 = icmp eq i32 %22, 0
  %spec.select.i = sext i1 %23 to i32
  %.phi.trans.insert = getelementptr i8, ptr %11, i64 32
  %.val13.i.pre = load ptr, ptr %.phi.trans.insert, align 8, !tbaa !46
  %.pre = load i32, ptr %.val13.i.pre, align 8
  br label %32

24:                                               ; preds = %If_ManImproveNodeWillGrow.exit
  %25 = getelementptr inbounds nuw i8, ptr %11, i64 12
  %26 = load i32, ptr %25, align 4, !tbaa !40
  %27 = icmp eq i32 %26, 0
  %spec.select.i20 = sext i1 %27 to i32
  %28 = getelementptr inbounds nuw i8, ptr %.val.i, i64 12
  %29 = load i32, ptr %28, align 4, !tbaa !40
  %30 = icmp eq i32 %29, 0
  %not..i = xor i1 %27, true
  %31 = zext i1 %not..i to i32
  %spec.select9.i = select i1 %30, i32 %31, i32 %spec.select.i20
  br label %32

32:                                               ; preds = %20, %24
  %33 = phi i32 [ %.pre, %20 ], [ %18, %24 ]
  %.val13.i = phi ptr [ %.val13.i.pre, %20 ], [ %.val5.i, %24 ]
  %.1.i = phi i32 [ %spec.select.i, %20 ], [ %spec.select9.i, %24 ]
  %34 = and i32 %33, 256
  %.not8.i = icmp eq i32 %34, 0
  br i1 %.not8.i, label %35, label %If_ManImproveNodeFaninCost.exit

35:                                               ; preds = %32
  %36 = getelementptr inbounds nuw i8, ptr %.val13.i, i64 12
  %37 = load i32, ptr %36, align 4, !tbaa !40
  %38 = icmp eq i32 %37, 0
  %39 = zext i1 %38 to i32
  %spec.select10.i = add nsw i32 %.1.i, %39
  br label %If_ManImproveNodeFaninCost.exit

If_ManImproveNodeFaninCost.exit:                  ; preds = %32, %35
  %.2.i = phi i32 [ %.1.i, %32 ], [ %spec.select10.i, %35 ]
  %40 = icmp slt i32 %.2.i, 1
  br i1 %40, label %41, label %42

41:                                               ; preds = %If_ManImproveNodeFaninCost.exit
  tail call void @If_ManImproveNodeFaninUpdate(ptr poison, ptr noundef nonnull %11, ptr noundef nonnull %3, ptr noundef %4)
  br label %.critedge

42:                                               ; preds = %If_ManImproveNodeFaninCost.exit, %If_ManImproveNodeWillGrow.exit, %9
  %indvars.iv.next = add nuw nsw i64 %indvars.iv, 1
  %exitcond.not = icmp eq i64 %indvars.iv.next, %wide.trip.count
  br i1 %exitcond.not, label %.critedge, label %9, !llvm.loop !47

.critedge:                                        ; preds = %42, %5, %41
  %.014 = phi i32 [ 1, %41 ], [ 0, %5 ], [ 0, %42 ]
  ret i32 %.014
}